target datalayout = "e-m:e-p270:32:32-p271:32:32-p272:64:64-i64:64-i128:128-f80:128-n8:16:32:64-S128"
target triple = "x86_64-pc-linux-gnu"

; Function Attrs: mustprogress nounwind ssp uwtable
define internal void @_ZN6open3d4core6kernelL19CPUDivElementKernelIaEEvPKvS4_Pv(ptr noundef %0, ptr noundef %1, ptr noundef %2) #3 {
  %4 = alloca ptr, align 8
  %5 = alloca ptr, align 8
  %6 = alloca ptr, align 8
  store ptr %0, ptr %4, align 8, !tbaa !17
  store ptr %1, ptr %5, align 8, !tbaa !17
  store ptr %2, ptr %6, align 8, !tbaa !17
  %7 = load ptr, ptr %4, align 8, !tbaa !17
  %8 = load i8, ptr %7, align 1, !tbaa !24
  %9 = sext i8 %8 to i32
  %10 = load ptr, ptr %5, align 8, !tbaa !17
  %11 = load i8, ptr %10, align 1, !tbaa !24
  %12 = sext i8 %11 to i32
  %13 = sdiv i32 %9, %12
  %14 = trunc i32 %13 to i8
  %15 = load ptr, ptr %6, align 8, !tbaa !17
  store i8 %14, ptr %15, align 1, !tbaa !24
  ret void
}