; Function Attrs: mustprogress nofree norecurse nosync nounwind ssp willreturn memory(argmem: readwrite) uwtable
define internal void @_ZN6open3d4core6kernelL19CPUDivElementKernelIaEEvPKvS4_Pv(ptr noundef readonly captures(none) %0, ptr noundef readonly captures(none) %1, ptr noundef writeonly captures(none) initializes((0, 1)) %2) #15 {
  %4 = load i8, ptr %0, align 1, !tbaa !13
  %5 = load i8, ptr %1, align 1, !tbaa !13
  %.lhs.trunc = sext i8 %4 to i16
  %.rhs.trunc = sext i8 %5 to i16
  %6 = sdiv i16 %.lhs.trunc, %.rhs.trunc
  %7 = trunc i16 %6 to i8
  store i8 %7, ptr %2, align 1, !tbaa !13
  ret void
}